target datalayout = "e-m:e-p270:32:32-p271:32:32-p272:64:64-i64:64-i128:128-f80:128-n8:16:32:64-S128"
target triple = "x86_64-pc-linux-gnu"

%struct.SockAddr = type { %struct.sockaddr_storage, i32 }
%struct.sockaddr_storage = type { i16, [118 x i8], i64 }
%struct.Port = type { i32, i8, i32, %struct.SockAddr, %struct.SockAddr, ptr, ptr, i32, i32, ptr, ptr, ptr, ptr, ptr, ptr, ptr, i32, i32, i32, i32, i32, i32, i32, i32, [32 x i8], [32 x i8], i8, ptr, i8, ptr, ptr, i8, i8, i8, ptr, ptr, ptr, i64, i64 }

@.str.2 = private unnamed_addr constant [9 x i8] c"pqcomm.c\00", align 1
@PqSendBuffer = internal global ptr null, align 8
@PqSendStart = internal global i64 0, align 8
@PqSendPointer = internal global i64 0, align 8
@PqCommBusy = internal global i8 0, align 1
@MyProcPort = external global ptr, align 8
@.str.44 = private unnamed_addr constant [30 x i8] c"there is no client connection\00", align 1
@__func__.socket_set_nonblocking = private unnamed_addr constant [23 x i8] c"socket_set_nonblocking\00", align 1

; Function Attrs: inlinehint nounwind uwtable
define internal i32 @internal_flush() #12 {
  %1 = load ptr, ptr @PqSendBuffer, align 8
  %2 = call i32 @internal_flush_buffer(ptr noundef %1, ptr noundef @PqSendStart, ptr noundef @PqSendPointer)
  ret i32 %2
}

; Function Attrs: nounwind uwtable
define internal void @socket_set_nonblocking(i1 noundef zeroext %0) #0 {
  %2 = alloca i8, align 1
  %3 = zext i1 %0 to i8
  store i8 %3, ptr %2, align 1
  %4 = load ptr, ptr @MyProcPort, align 8
  %5 = icmp eq ptr %4, null
  br i1 %5, label %6, label %17

6:                                                ; preds = %1
  br label %7

7:                                                ; preds = %6
  br i1 true, label %8, label %10

8:                                                ; preds = %7
  %9 = call zeroext i1 @errstart_cold(i32 noundef 21, ptr noundef null) #15
  br i1 %9, label %12, label %15

10:                                               ; preds = %7
  %11 = call zeroext i1 @errstart(i32 noundef 21, ptr noundef null)
  br i1 %11, label %12, label %15

12:                                               ; preds = %10, %8
  %13 = call i32 @errcode(i32 noundef 50332160)
  %14 = call i32 (ptr, ...) @errmsg(ptr noundef @.str.44)
  call void @errfinish(ptr noundef @.str.2, i32 noundef 886, ptr noundef @__func__.socket_set_nonblocking)
  br label %15

15:                                               ; preds = %12, %10, %8
  unreachable

16:                                               ; No predecessors!
  br label %17

17:                                               ; preds = %16, %1
  %18 = load i8, ptr %2, align 1, !range !11, !noundef !12
  %19 = trunc i8 %18 to i1
  %20 = load ptr, ptr @MyProcPort, align 8
  %21 = getelementptr inbounds nuw %struct.Port, ptr %20, i32 0, i32 1
  %22 = zext i1 %19 to i8
  store i8 %22, ptr %21, align 4
  ret void
}

; Function Attrs: nounwind uwtable
define internal i32 @socket_flush() #0 {
  %1 = alloca i32, align 4
  %2 = alloca i32, align 4
  %3 = alloca i32, align 4
  call void @llvm.lifetime.start.p0(i64 4, ptr %2) #14
  %4 = load i8, ptr @PqCommBusy, align 1, !range !11, !noundef !12
  %5 = trunc i8 %4 to i1
  br i1 %5, label %6, label %7

6:                                                ; preds = %0
  store i32 0, ptr %1, align 4
  store i32 1, ptr %3, align 4
  br label %10

7:                                                ; preds = %0
  store i8 1, ptr @PqCommBusy, align 1
  call void @socket_set_nonblocking(i1 noundef zeroext false)
  %8 = call i32 @internal_flush()
  store i32 %8, ptr %2, align 4
  store i8 0, ptr @PqCommBusy, align 1
  %9 = load i32, ptr %2, align 4
  store i32 %9, ptr %1, align 4
  store i32 1, ptr %3, align 4
  br label %10

10:                                               ; preds = %7, %6
  call void @llvm.lifetime.end.p0(i64 4, ptr %2) #14
  %11 = load i32, ptr %1, align 4
  ret i32 %11
}