; Function Attrs: nounwind uwtable
define internal range(i32 -1, 1) i32 @socket_flush() #0 {
  %.b2 = load i1, ptr @PqCommBusy, align 1
  br i1 %.b2, label %11, label %1

1:                                                ; preds = %0
  store i1 true, ptr @PqCommBusy, align 1
  %2 = load ptr, ptr @MyProcPort, align 8
  %3 = icmp eq ptr %2, null
  br i1 %3, label %4, label %socket_set_nonblocking.exit

4:                                                ; preds = %1
  %5 = tail call zeroext i1 @errstart_cold(i32 noundef 21, ptr noundef null) #22
  tail call void @llvm.assume(i1 %5)
  %6 = tail call i32 @errcode(i32 noundef 50332160) #21
  %7 = tail call i32 (ptr, ...) @errmsg(ptr noundef nonnull @.str.44) #21
  tail call void @errfinish(ptr noundef nonnull @.str.2, i32 noundef 886, ptr noundef nonnull @__func__.socket_set_nonblocking) #21
  unreachable

socket_set_nonblocking.exit:                      ; preds = %1
  %8 = getelementptr inbounds nuw i8, ptr %2, i64 4
  store i8 0, ptr %8, align 4
  %9 = load ptr, ptr @PqSendBuffer, align 8
  %10 = tail call fastcc range(i32 -1, 1) i32 @internal_flush_buffer(ptr noundef %9, ptr noundef nonnull @PqSendStart, ptr noundef nonnull @PqSendPointer)
  store i1 false, ptr @PqCommBusy, align 1
  br label %11

11:                                               ; preds = %0, %socket_set_nonblocking.exit
  %.0 = phi i32 [ %10, %socket_set_nonblocking.exit ], [ 0, %0 ]
  ret i32 %.0
}